Certificate:
    Data:
        Version: 3 (0x2)
        Serial Number:
            5b:5f:4d:4c:d3:22:a5:ee:90:26:20:70:29:c5:40:5c:52:47:27:20
        Signature Algorithm: sha256WithRSAEncryption
        Issuer: C=ES, ST=Barcelona, O=IAS Org, OU=Certification, CN=IAS Root CA
        Validity
            Not Before: Oct 10 11:18:02 2021 GMT
            Not After : Oct 10 11:18:02 2022 GMT
        Subject: C=ES, ST=Barcelona, O=IAS Org, OU=Web, CN=localhost
        Subject Public Key Info:
            Public Key Algorithm: rsaEncryption
                RSA Public-Key: (2048 bit)
                Modulus:
                    00:d7:3a:c7:97:32:e3:12:3a:9c:7d:d3:d4:1a:6c:
                    df:d1:e6:0f:e6:bb:eb:b9:db:ab:71:12:66:9f:27:
                    0a:90:e2:c9:0f:b7:4d:f9:e0:cb:62:93:e4:56:e4:
                    31:a7:8f:30:68:6d:9c:54:3f:e2:68:d2:b1:d4:83:
                    04:ad:d4:e7:d3:a5:d7:d8:b1:41:9d:df:0b:98:ef:
                    89:b3:0a:4d:54:98:55:5c:1b:16:23:60:14:b9:c7:
                    1f:af:d7:fe:92:50:83:59:03:b6:59:c2:50:8d:6e:
                    0a:cb:25:a8:03:16:a5:9e:48:56:12:88:ba:22:11:
                    8e:1d:63:59:4b:fa:72:87:fc:3e:3b:2b:15:31:06:
                    66:cc:f7:31:0d:af:66:80:16:26:c0:b3:9c:bc:bd:
                    f6:0a:03:30:8a:25:c1:17:18:4d:a1:0e:b5:77:b1:
                    c1:b4:85:18:7d:43:37:42:ad:68:ca:27:91:7e:c0:
                    f5:7f:99:c0:1b:5b:bc:69:71:a1:92:4a:b9:69:e7:
                    c2:9c:55:be:10:7d:7b:1c:14:64:97:5b:96:f8:86:
                    28:eb:7e:4a:95:a5:fb:1b:4c:79:9c:8c:fc:cf:44:
                    15:a5:cb:0c:15:05:03:ac:b2:20:75:04:c5:f0:32:
                    8a:99:5e:f0:ba:8d:1c:ed:0b:4b:46:67:c1:4a:cb:
                    37:01
                Exponent: 65537 (0x10001)
        X509v3 extensions:
            X509v3 Basic Constraints: 
                CA:FALSE
            Netscape Comment: 
                OpenSSL Generated Certificate
            X509v3 Subject Key Identifier: 
                85:AE:62:69:B6:4B:1F:41:85:0D:01:CE:C1:01:65:4C:55:FC:5C:7A
            X509v3 Authority Key Identifier: 
                keyid:E6:10:31:D8:7D:37:59:7E:15:93:28:7F:8D:81:7D:BE:AE:D4:21:47

    Signature Algorithm: sha256WithRSAEncryption
         b0:30:37:43:85:84:97:be:73:b6:2e:70:21:b6:66:52:a1:96:
         18:7f:b1:ad:a0:30:a5:d9:70:81:2c:95:1f:27:a0:a0:68:9e:
         86:cb:36:9c:64:e9:71:bb:67:d8:ff:1c:67:49:f7:8a:10:8e:
         67:51:71:c8:35:92:dc:2c:0b:f8:f4:cd:7a:4e:10:92:fd:59:
         f6:ef:ab:3b:c7:1e:74:71:2b:b6:73:60:e9:fd:85:33:39:90:
         b4:e0:88:97:98:9e:eb:7c:95:b8:eb:a9:2b:05:c9:74:46:7e:
         a5:ad:18:cb:30:6e:f5:22:7b:8d:24:06:8b:fe:87:10:f9:fa:
         8a:98:c4:c7:af:19:c7:6e:95:5b:2c:0a:e3:84:f1:36:a1:f9:
         ca:42:4d:22:7d:a3:42:eb:f1:4d:6b:af:bf:06:fa:ab:67:0c:
         52:c1:1b:6b:86:02:7f:f0:87:ca:40:43:a3:76:47:44:19:63:
         0e:fa:1b:71:62:d6:7a:50:1d:57:05:02:b4:76:b4:e2:99:57:
         c2:0d:a1:4c:18:16:13:a2:18:ba:89:75:95:94:c5:53:9f:88:
         5f:db:87:54:c8:ec:d6:99:85:f7:06:4f:73:6b:02:1b:57:8a:
         3c:2a:94:07:43:91:ef:fb:2b:e8:77:0b:d6:99:94:5a:57:3f:
         03:37:81:7a
-----BEGIN CERTIFICATE-----
MIIDvzCCAqegAwIBAgIUW19NTNMipe6QJiBwKcVAXFJHJyAwDQYJKoZIhvcNAQEL
BQAwYTELMAkGA1UEBhMCRVMxEjAQBgNVBAgMCUJhcmNlbG9uYTEQMA4GA1UECgwH
SUFTIE9yZzEWMBQGA1UECwwNQ2VydGlmaWNhdGlvbjEUMBIGA1UEAwwLSUFTIFJv
b3QgQ0EwHhcNMjExMDEwMTExODAyWhcNMjIxMDEwMTExODAyWjBVMQswCQYDVQQG
EwJFUzESMBAGA1UECAwJQmFyY2Vsb25hMRAwDgYDVQQKDAdJQVMgT3JnMQwwCgYD
VQQLDANXZWIxEjAQBgNVBAMMCWxvY2FsaG9zdDCCASIwDQYJKoZIhvcNAQEBBQAD
ggEPADCCAQoCggEBANc6x5cy4xI6nH3T1Bps39HmD+a767nbq3ESZp8nCpDiyQ+3
Tfngy2KT5FbkMaePMGhtnFQ/4mjSsdSDBK3U59Ol19ixQZ3fC5jvibMKTVSYVVwb
FiNgFLnHH6/X/pJQg1kDtlnCUI1uCsslqAMWpZ5IVhKIuiIRjh1jWUv6cof8Pjsr
FTEGZsz3MQ2vZoAWJsCznLy99goDMIolwRcYTaEOtXexwbSFGH1DN0KtaMonkX7A
9X+ZwBtbvGlxoZJKuWnnwpxVvhB9exwUZJdblviGKOt+SpWl+xtMeZyM/M9EFaXL
DBUFA6yyIHUExfAyiple8LqNHO0LS0ZnwUrLNwECAwEAAaN7MHkwCQYDVR0TBAIw
ADAsBglghkgBhvhCAQ0EHxYdT3BlblNTTCBHZW5lcmF0ZWQgQ2VydGlmaWNhdGUw
HQYDVR0OBBYEFIWuYmm2Sx9BhQ0BzsEBZUxV/Fx6MB8GA1UdIwQYMBaAFOYQMdh9
N1l+FZMof42Bfb6u1CFHMA0GCSqGSIb3DQEBCwUAA4IBAQCwMDdDhYSXvnO2LnAh
tmZSoZYYf7GtoDCl2XCBLJUfJ6CgaJ6GyzacZOlxu2fY/xxnSfeKEI5nUXHINZLc
LAv49M16ThCS/Vn276s7xx50cSu2c2Dp/YUzOZC04IiXmJ7rfJW466krBcl0Rn6l
rRjLMG71InuNJAaL/ocQ+fqKmMTHrxnHbpVbLArjhPE2ofnKQk0ifaNC6/FNa6+/
BvqrZwxSwRtrhgJ/8IfKQEOjdkdEGWMO+htxYtZ6UB1XBQK0drTimVfCDaFMGBYT
ohi6iXWVlMVTn4hf24dUyOzWmYX3Bk9zawIbV4o8KpQHQ5Hv+yvodwvWmZRaVz8D
N4F6
-----END CERTIFICATE-----
