Certificate:
    Data:
        Version: 3 (0x2)
        Serial Number:
            1f:8f:22:55:3a:21:7a:46:23:23:99:ff:67:18:f9:64:2c:76:48:63
        Signature Algorithm: sha256WithRSAEncryption
        Issuer: C=ES, ST=Barcelona, O=IAS Org, OU=Certification, CN=IAS Root CA
        Validity
            Not Before: Oct 17 11:06:55 2021 GMT
            Not After : Oct 17 11:06:55 2022 GMT
        Subject: C=ES, ST=Barcelona, O=IAS Org, OU=Keycloak Server, CN=keycloak
        Subject Public Key Info:
            Public Key Algorithm: rsaEncryption
                RSA Public-Key: (2048 bit)
                Modulus:
                    00:b7:1d:9f:5e:fa:5b:95:b1:7d:20:61:ce:da:b9:
                    02:10:b3:87:61:e8:6a:b6:67:77:f2:09:d5:3d:9c:
                    de:96:f1:d6:7a:bd:db:fb:21:18:8d:ce:69:b5:f6:
                    27:7c:97:7f:48:af:5e:23:01:fb:9d:58:d3:56:87:
                    61:4e:75:67:f3:ba:3d:b4:cc:32:82:58:0d:7c:21:
                    00:4f:3b:8f:6c:c8:48:fd:03:e5:86:a3:41:46:12:
                    73:2c:ba:81:82:b8:d0:81:79:0e:d6:87:0d:32:ce:
                    90:82:f9:8e:1c:03:95:3d:d2:e2:18:73:75:fc:03:
                    e9:33:93:ab:48:9b:4b:38:20:9a:3c:40:0e:1f:d4:
                    cb:c6:6c:bf:b5:24:e4:ab:ed:2e:8f:4c:cb:d2:e2:
                    30:97:b9:6a:55:c0:ca:6f:b1:56:78:a0:1d:eb:59:
                    ad:13:ad:7f:f0:0b:32:c8:eb:f5:b1:54:94:e3:b5:
                    fd:f3:f4:32:3c:17:a9:ec:9a:bc:35:e9:99:9f:07:
                    c8:95:ad:f4:39:07:65:28:a9:9e:82:f7:a0:a6:06:
                    4c:a9:49:f0:f1:21:71:02:6f:39:32:aa:94:71:e3:
                    a2:95:94:47:22:a3:6e:93:da:cb:3d:46:bf:be:1d:
                    18:f8:c5:e3:0f:05:d5:d6:1a:13:c0:68:ca:a8:dc:
                    c0:fd
                Exponent: 65537 (0x10001)
        X509v3 extensions:
            X509v3 Basic Constraints: 
                CA:FALSE
            Netscape Comment: 
                OpenSSL Generated Certificate
            X509v3 Subject Key Identifier: 
                61:63:C1:6D:BE:23:DD:BC:03:16:9F:E0:58:77:0B:71:87:71:B1:67
            X509v3 Authority Key Identifier: 
                keyid:58:15:13:EF:E2:0E:35:E6:C0:34:E2:4E:C0:B5:DE:D7:E1:25:26:F2

    Signature Algorithm: sha256WithRSAEncryption
         df:04:51:82:66:3f:53:1f:5a:1d:79:98:db:c8:d9:62:87:72:
         a7:69:23:8a:d5:6a:7a:6e:61:27:75:be:24:f7:72:1f:04:08:
         85:2a:4a:70:31:7a:48:38:1a:70:85:0c:2c:b5:67:4b:f1:a4:
         3e:5c:7d:5b:5c:bf:c0:4d:73:33:bb:89:46:10:36:b1:d1:33:
         fd:7a:ea:39:5a:98:d6:de:5c:9b:8b:f6:13:ba:fe:f9:4a:27:
         33:bf:37:e1:ef:26:fc:78:2b:19:8c:5c:6c:9d:20:78:f0:57:
         92:8c:71:75:fc:1e:f8:72:08:56:2e:0a:45:fb:b0:6f:d7:e4:
         a4:cb:5f:00:e9:7e:e7:fa:51:f3:9d:cf:5b:c1:56:cf:b6:f6:
         e4:2f:d9:86:8b:85:1a:d7:98:3f:a7:4e:8c:90:e4:90:1d:56:
         64:f2:fe:14:b7:35:32:66:a7:7c:59:45:6a:66:28:1d:14:0b:
         59:40:bd:db:e5:ee:3a:cd:cc:60:43:bc:ed:15:54:c7:1c:b1:
         fa:af:a1:de:9e:48:90:b9:4c:55:28:47:af:95:48:d1:8c:7b:
         64:9f:75:55:43:91:43:e1:e4:36:b9:00:83:2d:f3:cc:24:e7:
         a6:b3:9c:37:7d:f3:de:b9:87:0d:8e:35:05:42:1a:55:4e:07:
         82:d3:8b:bb
-----BEGIN CERTIFICATE-----
MIIDyjCCArKgAwIBAgIUH48iVTohekYjI5n/Zxj5ZCx2SGMwDQYJKoZIhvcNAQEL
BQAwYTELMAkGA1UEBhMCRVMxEjAQBgNVBAgMCUJhcmNlbG9uYTEQMA4GA1UECgwH
SUFTIE9yZzEWMBQGA1UECwwNQ2VydGlmaWNhdGlvbjEUMBIGA1UEAwwLSUFTIFJv
b3QgQ0EwHhcNMjExMDE3MTEwNjU1WhcNMjIxMDE3MTEwNjU1WjBgMQswCQYDVQQG
EwJFUzESMBAGA1UECAwJQmFyY2Vsb25hMRAwDgYDVQQKDAdJQVMgT3JnMRgwFgYD
VQQLDA9LZXljbG9hayBTZXJ2ZXIxETAPBgNVBAMMCGtleWNsb2FrMIIBIjANBgkq
hkiG9w0BAQEFAAOCAQ8AMIIBCgKCAQEAtx2fXvpblbF9IGHO2rkCELOHYehqtmd3
8gnVPZzelvHWer3b+yEYjc5ptfYnfJd/SK9eIwH7nVjTVodhTnVn87o9tMwyglgN
fCEATzuPbMhI/QPlhqNBRhJzLLqBgrjQgXkO1ocNMs6QgvmOHAOVPdLiGHN1/APp
M5OrSJtLOCCaPEAOH9TLxmy/tSTkq+0uj0zL0uIwl7lqVcDKb7FWeKAd61mtE61/
8AsyyOv1sVSU47X98/QyPBep7Jq8NemZnwfIla30OQdlKKmegvegpgZMqUnw8SFx
Am85MqqUceOilZRHIqNuk9rLPUa/vh0Y+MXjDwXV1hoTwGjKqNzA/QIDAQABo3sw
eTAJBgNVHRMEAjAAMCwGCWCGSAGG+EIBDQQfFh1PcGVuU1NMIEdlbmVyYXRlZCBD
ZXJ0aWZpY2F0ZTAdBgNVHQ4EFgQUYWPBbb4j3bwDFp/gWHcLcYdxsWcwHwYDVR0j
BBgwFoAUWBUT7+IONebANOJOwLXe1+ElJvIwDQYJKoZIhvcNAQELBQADggEBAN8E
UYJmP1MfWh15mNvI2WKHcqdpI4rVanpuYSd1viT3ch8ECIUqSnAxekg4GnCFDCy1
Z0vxpD5cfVtcv8BNczO7iUYQNrHRM/166jlamNbeXJuL9hO6/vlKJzO/N+HvJvx4
KxmMXGydIHjwV5KMcXX8HvhyCFYuCkX7sG/X5KTLXwDpfuf6UfOdz1vBVs+29uQv
2YaLhRrXmD+nToyQ5JAdVmTy/hS3NTJmp3xZRWpmKB0UC1lAvdvl7jrNzGBDvO0V
VMccsfqvod6eSJC5TFUoR6+VSNGMe2SfdVVDkUPh5Da5AIMt88wk56aznDd98965
hw2ONQVCGlVOB4LTi7s=
-----END CERTIFICATE-----
