Certificate:
    Data:
        Version: 3 (0x2)
        Serial Number:
            1f:8f:22:55:3a:21:7a:46:23:23:99:ff:67:18:f9:64:2c:76:48:61
        Signature Algorithm: sha256WithRSAEncryption
        Issuer: C=ES, ST=Barcelona, O=IAS Org, OU=Certification, CN=IAS Root CA
        Validity
            Not Before: Oct 17 11:01:20 2021 GMT
            Not After : Oct 17 11:01:20 2031 GMT
        Subject: C=ES, ST=Barcelona, O=IAS Org, OU=Certification, CN=IAS Root CA
        Subject Public Key Info:
            Public Key Algorithm: rsaEncryption
                RSA Public-Key: (2048 bit)
                Modulus:
                    00:f5:e5:bd:23:16:7c:cd:7c:65:e0:6f:4a:fb:0a:
                    ba:fc:ff:e2:52:4a:76:9a:39:01:0c:1f:95:2a:d4:
                    05:ef:a3:2f:b6:c0:48:32:7a:f7:97:c3:47:f4:ba:
                    2e:4b:ed:a5:75:3b:25:92:9e:26:b6:df:c5:ae:79:
                    f3:bf:09:78:aa:7f:53:ae:b9:e4:3c:ba:3e:7c:c0:
                    f5:31:a8:88:00:03:09:7e:b1:06:25:32:97:27:1d:
                    ae:42:7f:9c:3b:76:25:09:61:43:59:cf:70:e5:b5:
                    d5:2e:25:a0:1a:67:22:96:b2:b4:f4:6e:bd:1f:6a:
                    af:d6:16:55:43:fd:a7:2b:ca:e8:92:55:8c:c4:72:
                    d7:f4:d1:0d:4e:13:9e:32:5b:19:1d:c8:bc:f3:f9:
                    90:4b:7f:7a:ae:e0:fd:d4:7b:79:3f:6e:24:c9:ff:
                    72:e1:6a:22:c9:98:8b:d9:54:52:81:2f:fa:dc:e8:
                    ba:89:b4:3d:cf:41:dc:7e:5d:ea:bb:7b:43:70:bf:
                    a9:76:3b:dd:f0:0f:5d:fb:b5:61:d3:f2:52:30:f0:
                    40:00:30:f6:33:01:ca:ee:7d:43:de:44:eb:3a:66:
                    9f:f6:f4:2b:a6:99:f1:5a:d6:7e:b8:a4:10:b2:09:
                    2d:b4:d4:b9:f9:f8:23:cc:a0:2f:cd:41:14:27:7b:
                    ad:71
                Exponent: 65537 (0x10001)
        X509v3 extensions:
            X509v3 Subject Key Identifier: 
                58:15:13:EF:E2:0E:35:E6:C0:34:E2:4E:C0:B5:DE:D7:E1:25:26:F2
            X509v3 Authority Key Identifier: 
                keyid:58:15:13:EF:E2:0E:35:E6:C0:34:E2:4E:C0:B5:DE:D7:E1:25:26:F2

            X509v3 Basic Constraints: critical
                CA:TRUE
            X509v3 Key Usage: critical
                Certificate Sign, CRL Sign
    Signature Algorithm: sha256WithRSAEncryption
         f5:21:69:44:9d:87:3c:23:29:b6:72:5e:fa:fb:9f:96:fe:5f:
         7f:d3:27:ed:9b:41:ac:43:f1:4b:ce:a8:b7:c6:92:70:60:08:
         32:05:16:bc:30:ce:c9:66:4a:5d:a7:df:4b:23:c5:1d:f9:69:
         55:68:cb:38:17:0b:5b:2e:85:d6:46:c6:4c:be:c4:22:0f:f8:
         76:39:d8:d0:d9:f6:af:67:e1:26:0e:0e:cd:ac:47:4a:9e:f4:
         6e:d4:da:93:73:f2:0b:9e:a8:1a:31:d0:e4:7c:e5:94:1a:c0:
         b5:e1:33:0f:2c:4e:83:b0:be:aa:71:fe:3f:6f:01:7d:c5:44:
         0a:08:5c:c7:87:1d:f7:88:00:21:90:dd:57:07:e2:81:aa:32:
         24:a6:ab:aa:4c:cb:67:d4:99:63:35:d3:ed:b9:ca:41:07:12:
         7d:12:36:05:b6:3b:1a:53:21:d5:dd:87:a7:dc:20:6f:42:b3:
         42:33:c1:87:75:e0:5f:d8:fc:52:58:f9:13:c8:fc:3b:32:ab:
         7e:d4:b0:92:b4:de:81:09:d0:1d:d5:11:33:c9:3e:07:8d:90:
         a3:89:19:ff:46:61:f5:44:e3:51:5b:4b:8f:ae:ce:13:a6:1a:
         b9:ab:14:74:50:0a:5d:c5:a9:df:f4:17:a3:77:09:f2:61:ca:
         60:53:3f:de
-----BEGIN CERTIFICATE-----
MIIDszCCApugAwIBAgIUH48iVTohekYjI5n/Zxj5ZCx2SGEwDQYJKoZIhvcNAQEL
BQAwYTELMAkGA1UEBhMCRVMxEjAQBgNVBAgMCUJhcmNlbG9uYTEQMA4GA1UECgwH
SUFTIE9yZzEWMBQGA1UECwwNQ2VydGlmaWNhdGlvbjEUMBIGA1UEAwwLSUFTIFJv
b3QgQ0EwHhcNMjExMDE3MTEwMTIwWhcNMzExMDE3MTEwMTIwWjBhMQswCQYDVQQG
EwJFUzESMBAGA1UECAwJQmFyY2Vsb25hMRAwDgYDVQQKDAdJQVMgT3JnMRYwFAYD
VQQLDA1DZXJ0aWZpY2F0aW9uMRQwEgYDVQQDDAtJQVMgUm9vdCBDQTCCASIwDQYJ
KoZIhvcNAQEBBQADggEPADCCAQoCggEBAPXlvSMWfM18ZeBvSvsKuvz/4lJKdpo5
AQwflSrUBe+jL7bASDJ695fDR/S6LkvtpXU7JZKeJrbfxa55878JeKp/U6655Dy6
PnzA9TGoiAADCX6xBiUylycdrkJ/nDt2JQlhQ1nPcOW11S4loBpnIpaytPRuvR9q
r9YWVUP9pyvK6JJVjMRy1/TRDU4TnjJbGR3IvPP5kEt/eq7g/dR7eT9uJMn/cuFq
IsmYi9lUUoEv+tzouom0Pc9B3H5d6rt7Q3C/qXY73fAPXfu1YdPyUjDwQAAw9jMB
yu59Q95E6zpmn/b0K6aZ8VrWfrikELIJLbTUufn4I8ygL81BFCd7rXECAwEAAaNj
MGEwHQYDVR0OBBYEFFgVE+/iDjXmwDTiTsC13tfhJSbyMB8GA1UdIwQYMBaAFFgV
E+/iDjXmwDTiTsC13tfhJSbyMA8GA1UdEwEB/wQFMAMBAf8wDgYDVR0PAQH/BAQD
AgEGMA0GCSqGSIb3DQEBCwUAA4IBAQD1IWlEnYc8Iym2cl76+5+W/l9/0yftm0Gs
Q/FLzqi3xpJwYAgyBRa8MM7JZkpdp99LI8Ud+WlVaMs4FwtbLoXWRsZMvsQiD/h2
OdjQ2favZ+EmDg7NrEdKnvRu1NqTc/ILnqgaMdDkfOWUGsC14TMPLE6DsL6qcf4/
bwF9xUQKCFzHhx33iAAhkN1XB+KBqjIkpquqTMtn1JljNdPtucpBBxJ9EjYFtjsa
UyHV3Yen3CBvQrNCM8GHdeBf2PxSWPkTyPw7Mqt+1LCStN6BCdAd1REzyT4HjZCj
iRn/RmH1RONRW0uPrs4Tphq5qxR0UApdxanf9BejdwnyYcpgUz/e
-----END CERTIFICATE-----
