Certificate:
    Data:
        Version: 3 (0x2)
        Serial Number:
            1f:8f:22:55:3a:21:7a:46:23:23:99:ff:67:18:f9:64:2c:76:48:62
        Signature Algorithm: sha256WithRSAEncryption
        Issuer: C=ES, ST=Barcelona, O=IAS Org, OU=Certification, CN=IAS Root CA
        Validity
            Not Before: Oct 17 11:04:51 2021 GMT
            Not After : Oct 17 11:04:51 2022 GMT
        Subject: C=ES, ST=Barcelona, O=IAS Org, OU=Servers, CN=django
        Subject Public Key Info:
            Public Key Algorithm: rsaEncryption
                RSA Public-Key: (2048 bit)
                Modulus:
                    00:d6:16:41:20:a8:97:fa:b8:a3:54:ca:84:dd:c2:
                    05:e0:58:18:02:f1:18:2b:07:af:05:cf:a3:14:3a:
                    ac:7c:c6:3d:8f:89:56:05:a6:76:c7:43:40:37:ac:
                    2b:36:82:81:82:58:b1:60:dc:7a:d9:2b:c8:df:b6:
                    a8:66:68:32:09:6a:14:c4:6d:26:b3:62:82:b3:f2:
                    00:06:c5:16:7a:91:92:61:e6:0e:c8:0b:8e:aa:e8:
                    8c:54:d0:6a:07:13:c6:69:a5:06:14:22:7c:a3:ff:
                    a4:6e:63:fc:2a:43:60:d4:fd:12:75:a8:f6:82:b3:
                    1c:79:1a:ee:b7:72:df:ab:ac:f8:2c:d7:19:ec:82:
                    8b:9c:4f:01:08:2f:55:0f:2d:b4:7a:38:19:d4:d4:
                    84:c3:69:7b:0f:55:4e:cf:39:fc:df:c2:19:91:db:
                    66:9f:8f:24:e2:48:b3:25:89:bf:85:64:c2:5f:e1:
                    23:33:41:62:ad:8a:04:85:9d:62:e4:74:29:5f:f0:
                    1b:b8:80:ae:a5:d1:5f:1f:e3:37:0d:43:ff:a9:66:
                    b3:7b:8d:e4:6c:64:1f:14:cd:d9:a4:ce:53:d3:46:
                    97:8f:f6:32:cc:16:46:c8:e2:d7:72:50:7c:2e:2c:
                    ee:9c:44:8d:2e:5c:42:74:ee:97:1e:df:ff:cc:b7:
                    7e:91
                Exponent: 65537 (0x10001)
        X509v3 extensions:
            X509v3 Basic Constraints: 
                CA:FALSE
            Netscape Comment: 
                OpenSSL Generated Certificate
            X509v3 Subject Key Identifier: 
                65:31:B3:EA:28:14:98:65:84:F2:1B:0B:BE:BB:9A:ED:92:3E:E2:06
            X509v3 Authority Key Identifier: 
                keyid:58:15:13:EF:E2:0E:35:E6:C0:34:E2:4E:C0:B5:DE:D7:E1:25:26:F2

    Signature Algorithm: sha256WithRSAEncryption
         86:4d:e0:43:f3:03:80:95:69:d8:d8:90:6c:d5:3a:d6:f1:5c:
         97:d3:8f:34:9a:df:25:54:e1:fb:a5:33:64:6b:33:da:5b:67:
         b6:b8:bf:74:23:d4:de:29:d6:29:08:e8:8d:69:f8:6c:7f:c7:
         5f:24:a9:e5:cc:af:0e:2e:38:c5:fd:dd:d7:ff:bb:64:df:35:
         7e:33:b4:16:67:62:64:8a:fe:2e:32:35:21:02:d8:8c:6d:64:
         42:5b:4d:2a:a7:e6:b0:9e:7f:69:60:e3:d1:8b:07:08:14:d6:
         e8:a0:61:12:3e:55:7f:83:e6:2c:9d:1d:82:6f:96:a7:b6:ad:
         47:2a:84:3b:7c:87:83:b9:54:dd:35:8c:87:5c:37:6f:73:5a:
         70:df:7e:1e:d8:21:08:5b:a4:24:52:02:36:db:a3:80:73:a5:
         38:82:a7:90:d8:c1:bb:d6:51:9f:07:95:0f:19:4a:7c:d1:53:
         d0:28:54:94:46:9a:72:71:12:bd:ab:4a:16:8f:60:11:ba:a1:
         89:c6:cd:65:47:3e:0f:e0:3c:7a:19:d9:9b:c1:90:81:1d:08:
         c2:4f:ee:7b:f6:c0:07:95:68:bd:f8:0f:50:87:ea:29:d0:d3:
         12:46:43:ce:c8:e7:10:7a:c2:0c:ce:80:fb:36:44:af:ca:75:
         05:52:92:b6
-----BEGIN CERTIFICATE-----
MIIDwDCCAqigAwIBAgIUH48iVTohekYjI5n/Zxj5ZCx2SGIwDQYJKoZIhvcNAQEL
BQAwYTELMAkGA1UEBhMCRVMxEjAQBgNVBAgMCUJhcmNlbG9uYTEQMA4GA1UECgwH
SUFTIE9yZzEWMBQGA1UECwwNQ2VydGlmaWNhdGlvbjEUMBIGA1UEAwwLSUFTIFJv
b3QgQ0EwHhcNMjExMDE3MTEwNDUxWhcNMjIxMDE3MTEwNDUxWjBWMQswCQYDVQQG
EwJFUzESMBAGA1UECAwJQmFyY2Vsb25hMRAwDgYDVQQKDAdJQVMgT3JnMRAwDgYD
VQQLDAdTZXJ2ZXJzMQ8wDQYDVQQDDAZkamFuZ28wggEiMA0GCSqGSIb3DQEBAQUA
A4IBDwAwggEKAoIBAQDWFkEgqJf6uKNUyoTdwgXgWBgC8RgrB68Fz6MUOqx8xj2P
iVYFpnbHQ0A3rCs2goGCWLFg3HrZK8jftqhmaDIJahTEbSazYoKz8gAGxRZ6kZJh
5g7IC46q6IxU0GoHE8ZppQYUInyj/6RuY/wqQ2DU/RJ1qPaCsxx5Gu63ct+rrPgs
1xnsgoucTwEIL1UPLbR6OBnU1ITDaXsPVU7POfzfwhmR22afjyTiSLMlib+FZMJf
4SMzQWKtigSFnWLkdClf8Bu4gK6l0V8f4zcNQ/+pZrN7jeRsZB8UzdmkzlPTRpeP
9jLMFkbI4tdyUHwuLO6cRI0uXEJ07pce3//Mt36RAgMBAAGjezB5MAkGA1UdEwQC
MAAwLAYJYIZIAYb4QgENBB8WHU9wZW5TU0wgR2VuZXJhdGVkIENlcnRpZmljYXRl
MB0GA1UdDgQWBBRlMbPqKBSYZYTyGwu+u5rtkj7iBjAfBgNVHSMEGDAWgBRYFRPv
4g415sA04k7Atd7X4SUm8jANBgkqhkiG9w0BAQsFAAOCAQEAhk3gQ/MDgJVp2NiQ
bNU61vFcl9OPNJrfJVTh+6UzZGsz2ltntri/dCPU3inWKQjojWn4bH/HXySp5cyv
Di44xf3d1/+7ZN81fjO0FmdiZIr+LjI1IQLYjG1kQltNKqfmsJ5/aWDj0YsHCBTW
6KBhEj5Vf4PmLJ0dgm+Wp7atRyqEO3yHg7lU3TWMh1w3b3NacN9+HtghCFukJFIC
NtujgHOlOIKnkNjBu9ZRnweVDxlKfNFT0ChUlEaacnESvatKFo9gEbqhicbNZUc+
D+A8ehnZm8GQgR0Iwk/ue/bAB5VovfgPUIfqKdDTEkZDzsjnEHrCDM6A+zZEr8p1
BVKStg==
-----END CERTIFICATE-----
