Certificate:
    Data:
        Version: 3 (0x2)
        Serial Number:
            5b:5f:4d:4c:d3:22:a5:ee:90:26:20:70:29:c5:40:5c:52:47:27:1e
        Signature Algorithm: sha256WithRSAEncryption
        Issuer: C=ES, ST=Barcelona, O=IAS Org, OU=Certification, CN=IAS Root CA
        Validity
            Not Before: Oct 10 10:57:03 2021 GMT
            Not After : Oct 10 10:57:03 2031 GMT
        Subject: C=ES, ST=Barcelona, O=IAS Org, OU=Certification, CN=IAS Root CA
        Subject Public Key Info:
            Public Key Algorithm: rsaEncryption
                RSA Public-Key: (2048 bit)
                Modulus:
                    00:b1:ae:c5:91:6f:85:54:fd:f5:88:2a:06:51:60:
                    4b:fb:11:ec:ea:e6:72:3c:19:0f:92:d4:60:41:4b:
                    b9:de:6b:3e:ab:13:bb:fa:00:eb:13:0c:d1:9e:f1:
                    76:3f:ed:90:37:79:5d:83:9f:ac:cf:51:f0:40:ee:
                    57:90:c8:d7:85:13:68:94:ca:fe:5b:8b:30:3f:98:
                    51:97:a0:61:c7:09:2a:fa:37:0a:e0:44:c6:5e:ab:
                    d2:d9:46:6c:7c:46:06:f0:a1:80:9b:2e:27:d1:bf:
                    5e:53:28:50:8d:ab:49:4c:62:a1:77:ec:3c:f9:6a:
                    8e:e1:2c:3c:96:80:51:8e:1a:45:08:90:ab:14:7e:
                    53:cf:f1:bc:2f:a4:dc:a7:a5:64:92:8a:77:5e:10:
                    38:3c:4d:47:e5:bf:4c:ad:e6:26:c7:b8:20:4d:24:
                    3a:9a:40:0b:bc:d0:f2:12:99:da:55:8f:e0:ba:39:
                    1d:15:dd:58:8e:3a:b9:32:7b:71:9c:c8:1a:0b:6f:
                    b9:30:06:29:82:ed:6d:49:04:eb:d5:29:b2:69:18:
                    e6:bc:33:4c:1b:95:40:0a:d7:2c:36:e8:f5:b0:36:
                    a2:bb:e0:1d:a8:c6:08:de:11:e2:8f:f0:5c:a1:32:
                    90:cd:10:36:06:7c:46:27:d6:93:64:14:c2:8b:17:
                    e2:17
                Exponent: 65537 (0x10001)
        X509v3 extensions:
            X509v3 Subject Key Identifier: 
                E6:10:31:D8:7D:37:59:7E:15:93:28:7F:8D:81:7D:BE:AE:D4:21:47
            X509v3 Authority Key Identifier: 
                keyid:E6:10:31:D8:7D:37:59:7E:15:93:28:7F:8D:81:7D:BE:AE:D4:21:47

            X509v3 Basic Constraints: critical
                CA:TRUE
            X509v3 Key Usage: critical
                Certificate Sign, CRL Sign
    Signature Algorithm: sha256WithRSAEncryption
         67:56:38:42:51:4f:7f:f2:d9:85:ec:7e:f2:5d:02:36:53:a7:
         47:c4:69:d6:a0:d5:19:51:34:4b:03:72:9a:6a:00:e8:8d:af:
         bc:bd:31:f6:05:c4:60:75:9e:bb:56:83:67:e1:14:de:ab:1b:
         48:6c:32:c9:fb:04:08:7f:58:1e:98:c2:b0:81:59:f0:cf:01:
         8d:64:3f:6a:3d:41:8b:ff:db:f0:c4:cf:05:85:8e:56:ac:2c:
         7e:ff:04:19:54:f7:60:d8:64:fd:67:1d:76:f7:9d:9d:c7:77:
         f0:a2:83:1e:7f:bb:bd:d2:15:97:82:c1:28:56:1b:6c:87:63:
         06:66:ba:fc:db:07:71:7b:1f:21:96:7d:c7:22:85:e9:d7:4f:
         ec:e7:48:10:b3:a4:68:17:4d:e9:77:f7:cb:b5:36:5f:da:23:
         5e:60:95:86:8f:42:15:61:1f:d1:8c:41:8d:70:12:c7:c8:be:
         a9:be:9d:d8:65:9b:a6:16:5e:c0:7b:8c:c1:5e:a9:ba:49:07:
         de:14:8a:21:9a:21:93:37:49:f7:ea:fa:78:85:be:0a:94:e0:
         32:7c:20:6a:bc:e6:16:a7:66:fd:3f:b5:e8:07:0e:d9:7b:96:
         fc:fe:db:8e:3f:a2:44:ad:03:25:ad:2f:55:26:b8:a3:0f:a1:
         0a:28:8d:2a
-----BEGIN CERTIFICATE-----
MIIDszCCApugAwIBAgIUW19NTNMipe6QJiBwKcVAXFJHJx4wDQYJKoZIhvcNAQEL
BQAwYTELMAkGA1UEBhMCRVMxEjAQBgNVBAgMCUJhcmNlbG9uYTEQMA4GA1UECgwH
SUFTIE9yZzEWMBQGA1UECwwNQ2VydGlmaWNhdGlvbjEUMBIGA1UEAwwLSUFTIFJv
b3QgQ0EwHhcNMjExMDEwMTA1NzAzWhcNMzExMDEwMTA1NzAzWjBhMQswCQYDVQQG
EwJFUzESMBAGA1UECAwJQmFyY2Vsb25hMRAwDgYDVQQKDAdJQVMgT3JnMRYwFAYD
VQQLDA1DZXJ0aWZpY2F0aW9uMRQwEgYDVQQDDAtJQVMgUm9vdCBDQTCCASIwDQYJ
KoZIhvcNAQEBBQADggEPADCCAQoCggEBALGuxZFvhVT99YgqBlFgS/sR7OrmcjwZ
D5LUYEFLud5rPqsTu/oA6xMM0Z7xdj/tkDd5XYOfrM9R8EDuV5DI14UTaJTK/luL
MD+YUZegYccJKvo3CuBExl6r0tlGbHxGBvChgJsuJ9G/XlMoUI2rSUxioXfsPPlq
juEsPJaAUY4aRQiQqxR+U8/xvC+k3KelZJKKd14QODxNR+W/TK3mJse4IE0kOppA
C7zQ8hKZ2lWP4Lo5HRXdWI46uTJ7cZzIGgtvuTAGKYLtbUkE69UpsmkY5rwzTBuV
QArXLDbo9bA2orvgHajGCN4R4o/wXKEykM0QNgZ8RifWk2QUwosX4hcCAwEAAaNj
MGEwHQYDVR0OBBYEFOYQMdh9N1l+FZMof42Bfb6u1CFHMB8GA1UdIwQYMBaAFOYQ
Mdh9N1l+FZMof42Bfb6u1CFHMA8GA1UdEwEB/wQFMAMBAf8wDgYDVR0PAQH/BAQD
AgEGMA0GCSqGSIb3DQEBCwUAA4IBAQBnVjhCUU9/8tmF7H7yXQI2U6dHxGnWoNUZ
UTRLA3KaagDoja+8vTH2BcRgdZ67VoNn4RTeqxtIbDLJ+wQIf1gemMKwgVnwzwGN
ZD9qPUGL/9vwxM8FhY5WrCx+/wQZVPdg2GT9Zx12952dx3fwooMef7u90hWXgsEo
Vhtsh2MGZrr82wdxex8hln3HIoXp10/s50gQs6RoF03pd/fLtTZf2iNeYJWGj0IV
YR/RjEGNcBLHyL6pvp3YZZumFl7Ae4zBXqm6SQfeFIohmiGTN0n36vp4hb4KlOAy
fCBqvOYWp2b9P7XoBw7Ze5b8/tuOP6JErQMlrS9VJrijD6EKKI0q
-----END CERTIFICATE-----
